; Function Attrs: nounwind uwtable
define ptr @agbindrec(ptr noundef %0, ptr noundef %1, i32 noundef %2, i32 noundef %3) local_unnamed_addr #0 {
  %5 = tail call ptr @agraphof(ptr noundef %0) #11
  %6 = getelementptr inbounds nuw i8, ptr %0, i64 16
  %7 = load ptr, ptr %6, align 8, !tbaa !3
  br label %8

8:                                                ; preds = %13, %4
  %.021.i = phi ptr [ %7, %4 ], [ %15, %13 ]
  %.not.i = icmp eq ptr %.021.i, null
  br i1 %.not.i, label %aggetrec.exit, label %9

9:                                                ; preds = %8
  %10 = load ptr, ptr %.021.i, align 8, !tbaa !12
  %11 = tail call i32 @strcmp(ptr noundef nonnull readonly dereferenceable(1) %1, ptr noundef nonnull readonly dereferenceable(1) %10) #10
  %12 = icmp eq i32 %11, 0
  br i1 %12, label %.critedge.i, label %13

13:                                               ; preds = %9
  %14 = getelementptr inbounds nuw i8, ptr %.021.i, i64 8
  %15 = load ptr, ptr %14, align 8, !tbaa !15
  %16 = icmp eq ptr %15, %7
  br i1 %16, label %aggetrec.exit, label %8, !llvm.loop !16

.critedge.i:                                      ; preds = %9
  %17 = load i32, ptr %0, align 8
  %18 = and i32 %17, 4
  %.not23.i = icmp eq i32 %18, 0
  %19 = icmp ne ptr %.021.i, %7
  %or.cond31 = select i1 %.not23.i, i1 %19, i1 false
  br i1 %or.cond31, label %20, label %objputrec.exit

20:                                               ; preds = %.critedge.i
  store ptr %.021.i, ptr %6, align 8, !tbaa !3
  %21 = and i32 %17, 2
  %switch.not.i.i = icmp eq i32 %21, 0
  br i1 %switch.not.i.i, label %objputrec.exit, label %objputrec.exit.sink.split

aggetrec.exit:                                    ; preds = %8, %13
  %.not32 = icmp eq i32 %2, 0
  br i1 %.not32, label %objputrec.exit, label %22

22:                                               ; preds = %aggetrec.exit
  %23 = zext i32 %2 to i64
  %24 = tail call noalias ptr @calloc(i64 noundef range(i64 1, 4294967296) %23, i64 noundef 1) #12
  %25 = icmp eq ptr %24, null
  br i1 %25, label %26, label %gv_calloc.exit

26:                                               ; preds = %22
  %27 = load ptr, ptr @stderr, align 8, !tbaa !18
  %28 = tail call i32 (ptr, ptr, ...) @fprintf(ptr noundef %27, ptr noundef nonnull @.str.4, i64 noundef range(i64 1, 4294967296) %23) #13
  tail call fastcc void @graphviz_exit() #14
  unreachable

gv_calloc.exit:                                   ; preds = %22
  %29 = tail call ptr @agstrdup(ptr noundef %5, ptr noundef %1) #11
  store ptr %29, ptr %24, align 8, !tbaa !12
  %30 = load ptr, ptr %6, align 8, !tbaa !3
  %31 = icmp eq ptr %30, null
  br i1 %31, label %32, label %34

32:                                               ; preds = %gv_calloc.exit
  %33 = getelementptr inbounds nuw i8, ptr %24, i64 8
  store ptr %24, ptr %33, align 8, !tbaa !15
  br label %42

34:                                               ; preds = %gv_calloc.exit
  %35 = getelementptr inbounds nuw i8, ptr %30, i64 8
  %36 = load ptr, ptr %35, align 8, !tbaa !15
  %37 = icmp eq ptr %36, %30
  br i1 %37, label %38, label %40

38:                                               ; preds = %34
  store ptr %24, ptr %35, align 8, !tbaa !15
  %39 = getelementptr inbounds nuw i8, ptr %24, i64 8
  store ptr %30, ptr %39, align 8, !tbaa !15
  br label %42

40:                                               ; preds = %34
  %41 = getelementptr inbounds nuw i8, ptr %24, i64 8
  store ptr %36, ptr %41, align 8, !tbaa !15
  store ptr %24, ptr %35, align 8, !tbaa !15
  br label %42

42:                                               ; preds = %40, %38, %32
  %43 = load i32, ptr %0, align 8
  %44 = and i32 %43, 4
  %.not.i17 = icmp eq i32 %44, 0
  br i1 %.not.i17, label %45, label %objputrec.exit

45:                                               ; preds = %42
  store ptr %24, ptr %6, align 8, !tbaa !3
  %46 = and i32 %43, 2
  %switch.not.i.i18 = icmp eq i32 %46, 0
  br i1 %switch.not.i.i18, label %objputrec.exit, label %objputrec.exit.sink.split

objputrec.exit.sink.split:                        ; preds = %45, %20
  %.sink = phi i32 [ %17, %20 ], [ %43, %45 ]
  %.021.i.lcssa38.sink = phi ptr [ %.021.i, %20 ], [ %24, %45 ]
  %47 = and i32 %.sink, 3
  %48 = icmp eq i32 %47, 3
  %.v.i.i = select i1 %48, i64 -64, i64 64
  %49 = getelementptr inbounds i8, ptr %0, i64 %.v.i.i
  %50 = getelementptr inbounds nuw i8, ptr %49, i64 16
  store ptr %.021.i.lcssa38.sink, ptr %50, align 8, !tbaa !3
  %51 = load i32, ptr %49, align 8
  %52 = and i32 %51, -5
  store i32 %52, ptr %49, align 8
  br label %objputrec.exit

objputrec.exit:                                   ; preds = %objputrec.exit.sink.split, %.critedge.i, %20, %45, %42, %aggetrec.exit
  %.0 = phi ptr [ null, %aggetrec.exit ], [ %24, %42 ], [ %24, %45 ], [ %.021.i, %20 ], [ %.021.i, %.critedge.i ], [ %.021.i.lcssa38.sink, %objputrec.exit.sink.split ]
  %.not = icmp eq i32 %3, 0
  br i1 %.not, label %aggetrec.exit28, label %53

53:                                               ; preds = %objputrec.exit
  %54 = load ptr, ptr %6, align 8, !tbaa !3
  br label %55

55:                                               ; preds = %60, %53
  %.021.i20 = phi ptr [ %54, %53 ], [ %62, %60 ]
  %.not.i21 = icmp eq ptr %.021.i20, null
  br i1 %.not.i21, label %aggetrec.exit28, label %56

56:                                               ; preds = %55
  %57 = load ptr, ptr %.021.i20, align 8, !tbaa !12
  %58 = tail call i32 @strcmp(ptr noundef nonnull readonly dereferenceable(1) %1, ptr noundef nonnull readonly dereferenceable(1) %57) #10
  %59 = icmp eq i32 %58, 0
  br i1 %59, label %.critedge.i23, label %60

60:                                               ; preds = %56
  %61 = getelementptr inbounds nuw i8, ptr %.021.i20, i64 8
  %62 = load ptr, ptr %61, align 8, !tbaa !15
  %63 = icmp eq ptr %62, %54
  br i1 %63, label %aggetrec.exit28, label %55, !llvm.loop !16

.critedge.i23:                                    ; preds = %56
  %64 = load i32, ptr %0, align 8
  %65 = and i32 %64, 4
  %.not23.i24 = icmp eq i32 %65, 0
  br i1 %.not23.i24, label %68, label %66

66:                                               ; preds = %.critedge.i23
  %.not25.i25 = icmp eq ptr %54, %.021.i20
  br i1 %.not25.i25, label %aggetrec.exit28, label %67

67:                                               ; preds = %66
  tail call void (ptr, ...) @agerrorf(ptr noundef nonnull @.str) #11
  br label %aggetrec.exit28

68:                                               ; preds = %.critedge.i23
  store ptr %.021.i20, ptr %6, align 8, !tbaa !3
  %69 = or disjoint i32 %64, 4
  store i32 %69, ptr %0, align 8
  %70 = and i32 %64, 2
  %switch.not.i.i26 = icmp eq i32 %70, 0
  br i1 %switch.not.i.i26, label %aggetrec.exit28, label %71

71:                                               ; preds = %68
  %72 = and i32 %64, 3
  %73 = icmp eq i32 %72, 3
  %.v.i.i27 = select i1 %73, i64 -64, i64 64
  %74 = getelementptr inbounds i8, ptr %0, i64 %.v.i.i27
  %75 = getelementptr inbounds nuw i8, ptr %74, i64 16
  store ptr %.021.i20, ptr %75, align 8, !tbaa !3
  %76 = load i32, ptr %74, align 8
  %77 = or i32 %76, 4
  store i32 %77, ptr %74, align 8
  br label %aggetrec.exit28

aggetrec.exit28:                                  ; preds = %60, %55, %71, %68, %67, %66, %objputrec.exit
  ret ptr %.0
}